target datalayout = "e-m:e-p270:32:32-p271:32:32-p272:64:64-i64:64-i128:128-f80:128-n8:16:32:64-S128"
target triple = "x86_64-pc-linux-gnu"

%struct._value_string_ext = type { ptr, i32, i32, ptr, ptr }

@hf_r3_mortisestatelog_pointer = internal global i32 0, align 4
@hf_r3_mortisestatelog_mortisetype = internal global i32 0, align 4
@hf_r3_mortisestatelog_waiting = internal global i32 0, align 4
@hf_r3_mortisestatelog_state = internal global i32 0, align 4
@hf_r3_mortisestatelog_last = internal global i32 0, align 4
@hf_r3_mortisestatelog_event = internal global i32 0, align 4
@r3_mortiseeventnames_ext = internal global %struct._value_string_ext { ptr @_try_val_to_str_ext_init, i32 0, i32 14, ptr @r3_mortiseeventnames, ptr @.str.1810 }, align 8
@ett_r3mortisestatelog = internal global i32 0, align 4
@.str.1860 = private unnamed_addr constant [29 x i8] c"%s:%u: failed assertion \22%s\22\00", align 1
@.str.1861 = private unnamed_addr constant [33 x i8] c"epan/dissectors/packet-assa_r3.c\00", align 1
@.str.1862 = private unnamed_addr constant [18 x i8] c"start_offset == 0\00", align 1
@.str.1879 = private unnamed_addr constant [10 x i8] c"[Unknown]\00", align 1
@.str.2125 = private unnamed_addr constant [67 x i8] c"State Log Entry %2d (State=0x%02x, Last=0x%02x, Event=%s (0x%02x))\00", align 1

; Function Attrs: null_pointer_is_valid sspstrong uwtable
define internal void @dissect_r3_upstreammfgfield_mortisestatelog(ptr noundef %0, i32 noundef %1, i32 noundef %2, ptr noundef %3, ptr noundef %4) #0 {
  %6 = alloca ptr, align 8
  %7 = alloca i32, align 4
  %8 = alloca i32, align 4
  %9 = alloca ptr, align 8
  %10 = alloca ptr, align 8
  %11 = alloca i32, align 4
  %12 = alloca i32, align 4
  %13 = alloca i32, align 4
  %14 = alloca i32, align 4
  %15 = alloca i32, align 4
  %16 = alloca i32, align 4
  %17 = alloca ptr, align 8
  store ptr %0, ptr %6, align 8
  store i32 %1, ptr %7, align 4
  store i32 %2, ptr %8, align 4
  store ptr %3, ptr %9, align 8
  store ptr %4, ptr %10, align 8
  call void @llvm.lifetime.start.p0(i64 4, ptr %11) #5
  call void @llvm.lifetime.start.p0(i64 4, ptr %12) #5
  %18 = load ptr, ptr %10, align 8
  %19 = icmp ne ptr %18, null
  br i1 %19, label %21, label %20

20:                                               ; preds = %5
  store i32 1, ptr %13, align 4
  br label %103

21:                                               ; preds = %5
  %22 = load i32, ptr %7, align 4
  %23 = icmp eq i32 %22, 0
  br i1 %23, label %24, label %25

24:                                               ; preds = %21
  br label %27

25:                                               ; preds = %21
  call void (ptr, ...) @proto_report_dissector_bug(ptr noundef @.str.1860, ptr noundef @.str.1861, i32 noundef 4939, ptr noundef @.str.1862) #6
  unreachable

26:                                               ; No predecessors!
  br label %27

27:                                               ; preds = %26, %24
  %28 = load ptr, ptr %6, align 8
  %29 = call i32 @tvb_reported_length_remaining(ptr noundef %28, i32 noundef 3)
  store i32 %29, ptr %11, align 4
  %30 = load ptr, ptr %10, align 8
  %31 = load i32, ptr @hf_r3_mortisestatelog_pointer, align 4
  %32 = load ptr, ptr %6, align 8
  %33 = call ptr @proto_tree_add_item(ptr noundef %30, i32 noundef %31, ptr noundef %32, i32 noundef 0, i32 noundef 1, i32 noundef -2147483648)
  %34 = load ptr, ptr %10, align 8
  %35 = load i32, ptr @hf_r3_mortisestatelog_mortisetype, align 4
  %36 = load ptr, ptr %6, align 8
  %37 = call ptr @proto_tree_add_item(ptr noundef %34, i32 noundef %35, ptr noundef %36, i32 noundef 1, i32 noundef 1, i32 noundef -2147483648)
  %38 = load ptr, ptr %10, align 8
  %39 = load i32, ptr @hf_r3_mortisestatelog_waiting, align 4
  %40 = load ptr, ptr %6, align 8
  %41 = call ptr @proto_tree_add_item(ptr noundef %38, i32 noundef %39, ptr noundef %40, i32 noundef 2, i32 noundef 1, i32 noundef -2147483648)
  store i32 0, ptr %12, align 4
  br label %42

42:                                               ; preds = %99, %27
  %43 = load i32, ptr %12, align 4
  %44 = load i32, ptr %11, align 4
  %45 = icmp slt i32 %43, %44
  br i1 %45, label %46, label %102

46:                                               ; preds = %42
  call void @llvm.lifetime.start.p0(i64 4, ptr %14) #5
  %47 = load ptr, ptr %6, align 8
  %48 = load i32, ptr %12, align 4
  %49 = add i32 3, %48
  %50 = add i32 %49, 0
  %51 = call zeroext i8 @tvb_get_uint8(ptr noundef %47, i32 noundef %50)
  %52 = zext i8 %51 to i32
  store i32 %52, ptr %14, align 4
  call void @llvm.lifetime.start.p0(i64 4, ptr %15) #5
  %53 = load ptr, ptr %6, align 8
  %54 = load i32, ptr %12, align 4
  %55 = add i32 3, %54
  %56 = add i32 %55, 1
  %57 = call zeroext i8 @tvb_get_uint8(ptr noundef %53, i32 noundef %56)
  %58 = zext i8 %57 to i32
  store i32 %58, ptr %15, align 4
  call void @llvm.lifetime.start.p0(i64 4, ptr %16) #5
  %59 = load ptr, ptr %6, align 8
  %60 = load i32, ptr %12, align 4
  %61 = add i32 3, %60
  %62 = add i32 %61, 2
  %63 = call zeroext i8 @tvb_get_uint8(ptr noundef %59, i32 noundef %62)
  %64 = zext i8 %63 to i32
  store i32 %64, ptr %16, align 4
  call void @llvm.lifetime.start.p0(i64 8, ptr %17) #5
  %65 = load ptr, ptr %10, align 8
  %66 = load ptr, ptr %6, align 8
  %67 = load i32, ptr %12, align 4
  %68 = add i32 3, %67
  %69 = load i32, ptr @ett_r3mortisestatelog, align 4
  %70 = load i32, ptr %12, align 4
  %71 = sdiv i32 %70, 3
  %72 = load i32, ptr %14, align 4
  %73 = load i32, ptr %15, align 4
  %74 = load i32, ptr %16, align 4
  %75 = call ptr @val_to_str_ext_const(i32 noundef %74, ptr noundef @r3_mortiseeventnames_ext, ptr noundef @.str.1879)
  %76 = load i32, ptr %16, align 4
  %77 = call ptr (ptr, ptr, i32, i32, i32, ptr, ptr, ...) @proto_tree_add_subtree_format(ptr noundef %65, ptr noundef %66, i32 noundef %68, i32 noundef 3, i32 noundef %69, ptr noundef null, ptr noundef @.str.2125, i32 noundef %71, i32 noundef %72, i32 noundef %73, ptr noundef %75, i32 noundef %76)
  store ptr %77, ptr %17, align 8
  %78 = load ptr, ptr %17, align 8
  %79 = load i32, ptr @hf_r3_mortisestatelog_state, align 4
  %80 = load ptr, ptr %6, align 8
  %81 = load i32, ptr %12, align 4
  %82 = add i32 3, %81
  %83 = add i32 %82, 0
  %84 = call ptr @proto_tree_add_item(ptr noundef %78, i32 noundef %79, ptr noundef %80, i32 noundef %83, i32 noundef 1, i32 noundef -2147483648)
  %85 = load ptr, ptr %17, align 8
  %86 = load i32, ptr @hf_r3_mortisestatelog_last, align 4
  %87 = load ptr, ptr %6, align 8
  %88 = load i32, ptr %12, align 4
  %89 = add i32 3, %88
  %90 = add i32 %89, 1
  %91 = call ptr @proto_tree_add_item(ptr noundef %85, i32 noundef %86, ptr noundef %87, i32 noundef %90, i32 noundef 1, i32 noundef -2147483648)
  %92 = load ptr, ptr %17, align 8
  %93 = load i32, ptr @hf_r3_mortisestatelog_event, align 4
  %94 = load ptr, ptr %6, align 8
  %95 = load i32, ptr %12, align 4
  %96 = add i32 3, %95
  %97 = add i32 %96, 2
  %98 = call ptr @proto_tree_add_item(ptr noundef %92, i32 noundef %93, ptr noundef %94, i32 noundef %97, i32 noundef 1, i32 noundef -2147483648)
  call void @llvm.lifetime.end.p0(i64 8, ptr %17) #5
  call void @llvm.lifetime.end.p0(i64 4, ptr %16) #5
  call void @llvm.lifetime.end.p0(i64 4, ptr %15) #5
  call void @llvm.lifetime.end.p0(i64 4, ptr %14) #5
  br label %99

99:                                               ; preds = %46
  %100 = load i32, ptr %12, align 4
  %101 = add i32 %100, 3
  store i32 %101, ptr %12, align 4
  br label %42, !llvm.loop !29

102:                                              ; preds = %42
  store i32 0, ptr %13, align 4
  br label %103

103:                                              ; preds = %102, %20
  call void @llvm.lifetime.end.p0(i64 4, ptr %12) #5
  call void @llvm.lifetime.end.p0(i64 4, ptr %11) #5
  %104 = load i32, ptr %13, align 4
  switch i32 %104, label %106 [
    i32 0, label %105
    i32 1, label %105
  ]

105:                                              ; preds = %103, %103
  ret void

106:                                              ; preds = %103
  unreachable
}