; Function Attrs: null_pointer_is_valid sspstrong uwtable
define internal void @dissect_r3_upstreammfgfield_mortisestatelog(ptr noundef %0, i32 noundef %1, i32 %2, ptr readnone captures(none) %3, ptr noundef %4) #0 {
  %.not = icmp eq ptr %4, null
  br i1 %.not, label %.loopexit, label %6

6:                                                ; preds = %5
  %7 = icmp eq i32 %1, 0
  br i1 %7, label %9, label %8

8:                                                ; preds = %6
  tail call void (ptr, ...) @proto_report_dissector_bug(ptr noundef nonnull @.str.1860, ptr noundef nonnull @.str.1861, i32 noundef 4939, ptr noundef nonnull @.str.1862) #6
  unreachable

9:                                                ; preds = %6
  %10 = tail call i32 @tvb_reported_length_remaining(ptr noundef %0, i32 noundef 3)
  %11 = load i32, ptr @hf_r3_mortisestatelog_pointer, align 4
  %12 = tail call ptr @proto_tree_add_item(ptr noundef nonnull %4, i32 noundef %11, ptr noundef %0, i32 noundef 0, i32 noundef 1, i32 noundef -2147483648)
  %13 = load i32, ptr @hf_r3_mortisestatelog_mortisetype, align 4
  %14 = tail call ptr @proto_tree_add_item(ptr noundef nonnull %4, i32 noundef %13, ptr noundef %0, i32 noundef 1, i32 noundef 1, i32 noundef -2147483648)
  %15 = load i32, ptr @hf_r3_mortisestatelog_waiting, align 4
  %16 = tail call ptr @proto_tree_add_item(ptr noundef nonnull %4, i32 noundef %15, ptr noundef %0, i32 noundef 2, i32 noundef 1, i32 noundef -2147483648)
  %17 = icmp sgt i32 %10, 0
  br i1 %17, label %.lr.ph, label %.loopexit

.lr.ph:                                           ; preds = %9, %.lr.ph
  %.035 = phi i32 [ %18, %.lr.ph ], [ 0, %9 ]
  %18 = add i32 %.035, 3
  %19 = tail call zeroext i8 @tvb_get_uint8(ptr noundef %0, i32 noundef %18)
  %20 = zext i8 %19 to i32
  %21 = add i32 %.035, 4
  %22 = tail call zeroext i8 @tvb_get_uint8(ptr noundef %0, i32 noundef %21)
  %23 = zext i8 %22 to i32
  %24 = add i32 %.035, 5
  %25 = tail call zeroext i8 @tvb_get_uint8(ptr noundef %0, i32 noundef %24)
  %26 = zext i8 %25 to i32
  %27 = load i32, ptr @ett_r3mortisestatelog, align 4
  %28 = sdiv i32 %.035, 3
  %29 = tail call ptr @val_to_str_ext_const(i32 noundef %26, ptr noundef nonnull @r3_mortiseeventnames_ext, ptr noundef nonnull @.str.1879)
  %30 = tail call ptr (ptr, ptr, i32, i32, i32, ptr, ptr, ...) @proto_tree_add_subtree_format(ptr noundef nonnull %4, ptr noundef %0, i32 noundef %18, i32 noundef 3, i32 noundef %27, ptr noundef null, ptr noundef nonnull @.str.2125, i32 noundef %28, i32 noundef %20, i32 noundef %23, ptr noundef %29, i32 noundef %26)
  %31 = load i32, ptr @hf_r3_mortisestatelog_state, align 4
  %32 = tail call ptr @proto_tree_add_item(ptr noundef %30, i32 noundef %31, ptr noundef %0, i32 noundef %18, i32 noundef 1, i32 noundef -2147483648)
  %33 = load i32, ptr @hf_r3_mortisestatelog_last, align 4
  %34 = tail call ptr @proto_tree_add_item(ptr noundef %30, i32 noundef %33, ptr noundef %0, i32 noundef %21, i32 noundef 1, i32 noundef -2147483648)
  %35 = load i32, ptr @hf_r3_mortisestatelog_event, align 4
  %36 = tail call ptr @proto_tree_add_item(ptr noundef %30, i32 noundef %35, ptr noundef %0, i32 noundef %24, i32 noundef 1, i32 noundef -2147483648)
  %37 = icmp slt i32 %18, %10
  br i1 %37, label %.lr.ph, label %.loopexit, !llvm.loop !28

.loopexit:                                        ; preds = %.lr.ph, %9, %5
  ret void
}